; Function Attrs: nounwind uwtable
define ptr @l_Lake_Toml_instSmartInsertArrayOfToToml___rarg(ptr noundef %0, ptr noundef %1, ptr noundef %2, ptr noundef %3) #0 {
  %5 = tail call zeroext i8 @l_Array_isEmpty___rarg(ptr noundef %2) #4
  %6 = icmp eq i8 %5, 0
  br i1 %6, label %7, label %11

7:                                                ; preds = %4
  %8 = tail call ptr @lean_apply_1(ptr noundef %0, ptr noundef %2) #4
  %9 = load ptr, ptr @l_Lake_Toml_instSmartInsertOfToToml_x3f___rarg___closed__1, align 8, !tbaa !9
  %10 = tail call ptr @l_Lake_Toml_RBDict_insert___rarg(ptr noundef %9, ptr noundef %1, ptr noundef %8, ptr noundef %3) #4
  br label %lean_dec.exit

11:                                               ; preds = %4
  %12 = ptrtoint ptr %2 to i64
  %13 = and i64 %12, 1
  %.not = icmp eq i64 %13, 0
  br i1 %.not, label %14, label %lean_dec.exit14

14:                                               ; preds = %11
  %15 = load i32, ptr %2, align 4, !tbaa !4
  %16 = icmp sgt i32 %15, 1
  br i1 %16, label %17, label %19, !prof !11

17:                                               ; preds = %14
  %18 = add nsw i32 %15, -1
  store i32 %18, ptr %2, align 4, !tbaa !4
  br label %lean_dec.exit14

19:                                               ; preds = %14
  %.not.i = icmp eq i32 %15, 0
  br i1 %.not.i, label %lean_dec.exit14, label %20

20:                                               ; preds = %19
  tail call void @lean_dec_ref_cold(ptr noundef nonnull %2) #4
  br label %lean_dec.exit14

lean_dec.exit14:                                  ; preds = %20, %19, %17, %11
  %21 = ptrtoint ptr %1 to i64
  %22 = and i64 %21, 1
  %.not19 = icmp eq i64 %22, 0
  br i1 %.not19, label %23, label %lean_dec.exit13

23:                                               ; preds = %lean_dec.exit14
  %24 = load i32, ptr %1, align 4, !tbaa !4
  %25 = icmp sgt i32 %24, 1
  br i1 %25, label %26, label %28, !prof !11

26:                                               ; preds = %23
  %27 = add nsw i32 %24, -1
  store i32 %27, ptr %1, align 4, !tbaa !4
  br label %lean_dec.exit13

28:                                               ; preds = %23
  %.not.i15 = icmp eq i32 %24, 0
  br i1 %.not.i15, label %lean_dec.exit13, label %29

29:                                               ; preds = %28
  tail call void @lean_dec_ref_cold(ptr noundef nonnull %1) #4
  br label %lean_dec.exit13

lean_dec.exit13:                                  ; preds = %29, %28, %26, %lean_dec.exit14
  %30 = ptrtoint ptr %0 to i64
  %31 = and i64 %30, 1
  %.not20 = icmp eq i64 %31, 0
  br i1 %.not20, label %32, label %lean_dec.exit

32:                                               ; preds = %lean_dec.exit13
  %33 = load i32, ptr %0, align 4, !tbaa !4
  %34 = icmp sgt i32 %33, 1
  br i1 %34, label %35, label %37, !prof !11

35:                                               ; preds = %32
  %36 = add nsw i32 %33, -1
  store i32 %36, ptr %0, align 4, !tbaa !4
  br label %lean_dec.exit

37:                                               ; preds = %32
  %.not.i17 = icmp eq i32 %33, 0
  br i1 %.not.i17, label %lean_dec.exit, label %38

38:                                               ; preds = %37
  tail call void @lean_dec_ref_cold(ptr noundef nonnull %0) #4
  br label %lean_dec.exit

lean_dec.exit:                                    ; preds = %lean_dec.exit13, %35, %37, %38, %7
  %.0 = phi ptr [ %10, %7 ], [ %3, %38 ], [ %3, %37 ], [ %3, %35 ], [ %3, %lean_dec.exit13 ]
  ret ptr %.0
}